; Function Attrs: nounwind uwtable
define range(i32 1, 0) i32 @wolfSSL_update_keys(ptr noundef %0) local_unnamed_addr #0 {
  %2 = icmp eq ptr %0, null
  br i1 %2, label %Tls13UpdateKeys.exit.thread, label %3

3:                                                ; preds = %1
  %4 = getelementptr inbounds nuw i8, ptr %0, i64 710
  %5 = load i16, ptr %4, align 2
  %6 = tail call i32 @IsAtLeastTLSv1_3(i16 %5) #11
  %.not.i = icmp eq i32 %6, 0
  br i1 %.not.i, label %Tls13UpdateKeys.exit.thread, label %Tls13UpdateKeys.exit

Tls13UpdateKeys.exit:                             ; preds = %3
  %7 = tail call i32 @SendTls13KeyUpdate(ptr noundef nonnull %0)
  %.fr = freeze i32 %7
  %8 = icmp eq i32 %.fr, -327
  %spec.store.select = tail call i32 @llvm.umax.i32(i32 %.fr, i32 1)
  %spec.select = select i1 %8, i32 3, i32 %spec.store.select
  br label %Tls13UpdateKeys.exit.thread

Tls13UpdateKeys.exit.thread:                      ; preds = %Tls13UpdateKeys.exit, %1, %3
  %9 = phi i32 [ -173, %3 ], [ -173, %1 ], [ %spec.select, %Tls13UpdateKeys.exit ]
  ret i32 %9
}